target datalayout = "e-m:e-p270:32:32-p271:32:32-p272:64:64-i64:64-i128:128-f80:128-n8:16:32:64-S128"
target triple = "x86_64-pc-linux-gnu"

%class.b3Vector3 = type { %union.anon }
%union.anon = type { [4 x float] }
%struct.b3RigidBodyData = type { %class.b3Vector3, %class.b3Quaternion, %class.b3Vector3, %class.b3Vector3, i32, float, float, float }
%class.b3Quaternion = type { %class.b3QuadWord }
%class.b3QuadWord = type { %union.anon.32 }
%union.anon.32 = type { [4 x float] }
%class.b3GpuNarrowPhase = type { ptr, ptr, i32, i32, i32, ptr, ptr, ptr }
%struct.b3GpuNarrowPhaseInternalData = type { ptr, %class.b3AlignedObjectArray, %class.b3AlignedObjectArray.0, %class.b3AlignedObjectArray.0, %class.b3AlignedObjectArray.2, ptr, ptr, ptr, ptr, ptr, ptr, ptr, ptr, ptr, %class.b3AlignedObjectArray.4, ptr, %class.b3AlignedObjectArray.6, ptr, ptr, ptr, [2 x ptr], i32, ptr, ptr, ptr, ptr, ptr, i32, i32, %class.b3AlignedObjectArray.8, ptr, ptr, ptr, %class.b3AlignedObjectArray.10, %class.b3AlignedObjectArray.12, %class.b3AlignedObjectArray.14, %class.b3AlignedObjectArray.16, %class.b3AlignedObjectArray.18, ptr, ptr, ptr, %struct.b3Config }
%class.b3AlignedObjectArray = type <{ [4 x i8], i32, i32, [4 x i8], ptr, i8, [7 x i8] }>
%class.b3AlignedObjectArray.0 = type <{ [4 x i8], i32, i32, [4 x i8], ptr, i8, [7 x i8] }>
%class.b3AlignedObjectArray.2 = type <{ [4 x i8], i32, i32, [4 x i8], ptr, i8, [7 x i8] }>
%class.b3AlignedObjectArray.4 = type <{ [4 x i8], i32, i32, [4 x i8], ptr, i8, [7 x i8] }>
%class.b3AlignedObjectArray.6 = type <{ [4 x i8], i32, i32, [4 x i8], ptr, i8, [7 x i8] }>
%class.b3AlignedObjectArray.8 = type <{ [4 x i8], i32, i32, [4 x i8], ptr, i8, [7 x i8] }>
%class.b3AlignedObjectArray.10 = type <{ [4 x i8], i32, i32, [4 x i8], ptr, i8, [7 x i8] }>
%class.b3AlignedObjectArray.12 = type <{ [4 x i8], i32, i32, [4 x i8], ptr, i8, [7 x i8] }>
%class.b3AlignedObjectArray.14 = type <{ [4 x i8], i32, i32, [4 x i8], ptr, i8, [7 x i8] }>
%class.b3AlignedObjectArray.16 = type <{ [4 x i8], i32, i32, [4 x i8], ptr, i8, [7 x i8] }>
%class.b3AlignedObjectArray.18 = type <{ [4 x i8], i32, i32, [4 x i8], ptr, i8, [7 x i8] }>
%struct.b3Config = type { i32, i32, i32, i32, i32, i32, i32, i32, i32, i32, i32, i32 }
%class.b3AlignedObjectArray.30 = type <{ [4 x i8], i32, i32, [4 x i8], ptr, i8, [7 x i8] }>
%struct.anon = type { float, float, float, float }
%struct.anon.33 = type { float, float, float, float }

@.str.1 = private unnamed_addr constant [142 x i8] c"generated/home/dtcxzyw/WorkSpace/Projects/compilers/llvm-opt-benchmark/bench/bullet3/bullet3/src/Bullet3OpenCL/RigidBody/b3GpuNarrowPhase.cpp\00", align 1
@.str.6 = private unnamed_addr constant [19 x i8] c"b3Warning[%s,%d]:\0A\00", align 1
@.str.8 = private unnamed_addr constant [41 x i8] c"getObjectTransformFromCpu out of range.\0A\00", align 1

; Function Attrs: inlinehint mustprogress nounwind uwtable
define linkonce_odr dso_local noundef nonnull align 16 dereferenceable(80) ptr @_ZN20b3AlignedObjectArrayI15b3RigidBodyDataE2atEi(ptr noundef nonnull align 8 dereferenceable(25) %0, i32 noundef %1) #9 comdat align 2 {
  %3 = alloca ptr, align 8
  %4 = alloca i32, align 4
  store ptr %0, ptr %3, align 8, !tbaa !154
  store i32 %1, ptr %4, align 4, !tbaa !85
  %5 = load ptr, ptr %3, align 8
  %6 = getelementptr inbounds nuw %class.b3AlignedObjectArray.30, ptr %5, i32 0, i32 4
  %7 = load ptr, ptr %6, align 8, !tbaa !158
  %8 = load i32, ptr %4, align 4, !tbaa !85
  %9 = sext i32 %8 to i64
  %10 = getelementptr inbounds %struct.b3RigidBodyData, ptr %7, i64 %9
  ret ptr %10
}

; Function Attrs: inlinehint mustprogress nounwind uwtable
define linkonce_odr dso_local noundef i32 @_ZNK20b3AlignedObjectArrayI15b3RigidBodyDataE4sizeEv(ptr noundef nonnull align 8 dereferenceable(25) %0) #9 comdat align 2 {
  %2 = alloca ptr, align 8
  store ptr %0, ptr %2, align 8, !tbaa !154
  %3 = load ptr, ptr %2, align 8
  %4 = getelementptr inbounds nuw %class.b3AlignedObjectArray.30, ptr %3, i32 0, i32 1
  %5 = load i32, ptr %4, align 4, !tbaa !162
  ret i32 %5
}

; Function Attrs: mustprogress uwtable
define dso_local noundef zeroext i1 @_ZNK16b3GpuNarrowPhase25getObjectTransformFromCpuEPfS0_i(ptr noundef nonnull align 8 dereferenceable(56) %0, ptr noundef %1, ptr noundef %2, i32 noundef %3) #0 align 2 {
  %5 = alloca i1, align 1
  %6 = alloca ptr, align 8
  %7 = alloca ptr, align 8
  %8 = alloca ptr, align 8
  %9 = alloca i32, align 4
  store ptr %0, ptr %6, align 8, !tbaa !4
  store ptr %1, ptr %7, align 8, !tbaa !397
  store ptr %2, ptr %8, align 8, !tbaa !397
  store i32 %3, ptr %9, align 4, !tbaa !85
  %10 = load ptr, ptr %6, align 8
  %11 = load i32, ptr %9, align 4, !tbaa !85
  %12 = icmp sge i32 %11, 0
  br i1 %12, label %13, label %108

13:                                               ; preds = %4
  %14 = load i32, ptr %9, align 4, !tbaa !85
  %15 = getelementptr inbounds nuw %class.b3GpuNarrowPhase, ptr %10, i32 0, i32 1
  %16 = load ptr, ptr %15, align 8, !tbaa !19
  %17 = getelementptr inbounds nuw %struct.b3GpuNarrowPhaseInternalData, ptr %16, i32 0, i32 23
  %18 = load ptr, ptr %17, align 8, !tbaa !91
  %19 = call noundef i32 @_ZNK20b3AlignedObjectArrayI15b3RigidBodyDataE4sizeEv(ptr noundef nonnull align 8 dereferenceable(25) %18)
  %20 = icmp slt i32 %14, %19
  br i1 %20, label %21, label %108

21:                                               ; preds = %13
  %22 = getelementptr inbounds nuw %class.b3GpuNarrowPhase, ptr %10, i32 0, i32 1
  %23 = load ptr, ptr %22, align 8, !tbaa !19
  %24 = getelementptr inbounds nuw %struct.b3GpuNarrowPhaseInternalData, ptr %23, i32 0, i32 23
  %25 = load ptr, ptr %24, align 8, !tbaa !91
  %26 = load i32, ptr %9, align 4, !tbaa !85
  %27 = call noundef nonnull align 16 dereferenceable(80) ptr @_ZN20b3AlignedObjectArrayI15b3RigidBodyDataE2atEi(ptr noundef nonnull align 8 dereferenceable(25) %25, i32 noundef %26)
  %28 = getelementptr inbounds nuw %struct.b3RigidBodyData, ptr %27, i32 0, i32 0
  %29 = getelementptr inbounds nuw %class.b3Vector3, ptr %28, i32 0, i32 0
  %30 = getelementptr inbounds nuw %struct.anon, ptr %29, i32 0, i32 0
  %31 = load float, ptr %30, align 16, !tbaa !308
  %32 = load ptr, ptr %7, align 8, !tbaa !397
  %33 = getelementptr inbounds float, ptr %32, i64 0
  store float %31, ptr %33, align 4, !tbaa !309
  %34 = getelementptr inbounds nuw %class.b3GpuNarrowPhase, ptr %10, i32 0, i32 1
  %35 = load ptr, ptr %34, align 8, !tbaa !19
  %36 = getelementptr inbounds nuw %struct.b3GpuNarrowPhaseInternalData, ptr %35, i32 0, i32 23
  %37 = load ptr, ptr %36, align 8, !tbaa !91
  %38 = load i32, ptr %9, align 4, !tbaa !85
  %39 = call noundef nonnull align 16 dereferenceable(80) ptr @_ZN20b3AlignedObjectArrayI15b3RigidBodyDataE2atEi(ptr noundef nonnull align 8 dereferenceable(25) %37, i32 noundef %38)
  %40 = getelementptr inbounds nuw %struct.b3RigidBodyData, ptr %39, i32 0, i32 0
  %41 = getelementptr inbounds nuw %class.b3Vector3, ptr %40, i32 0, i32 0
  %42 = getelementptr inbounds nuw %struct.anon, ptr %41, i32 0, i32 1
  %43 = load float, ptr %42, align 4, !tbaa !308
  %44 = load ptr, ptr %7, align 8, !tbaa !397
  %45 = getelementptr inbounds float, ptr %44, i64 1
  store float %43, ptr %45, align 4, !tbaa !309
  %46 = getelementptr inbounds nuw %class.b3GpuNarrowPhase, ptr %10, i32 0, i32 1
  %47 = load ptr, ptr %46, align 8, !tbaa !19
  %48 = getelementptr inbounds nuw %struct.b3GpuNarrowPhaseInternalData, ptr %47, i32 0, i32 23
  %49 = load ptr, ptr %48, align 8, !tbaa !91
  %50 = load i32, ptr %9, align 4, !tbaa !85
  %51 = call noundef nonnull align 16 dereferenceable(80) ptr @_ZN20b3AlignedObjectArrayI15b3RigidBodyDataE2atEi(ptr noundef nonnull align 8 dereferenceable(25) %49, i32 noundef %50)
  %52 = getelementptr inbounds nuw %struct.b3RigidBodyData, ptr %51, i32 0, i32 0
  %53 = getelementptr inbounds nuw %class.b3Vector3, ptr %52, i32 0, i32 0
  %54 = getelementptr inbounds nuw %struct.anon, ptr %53, i32 0, i32 2
  %55 = load float, ptr %54, align 8, !tbaa !308
  %56 = load ptr, ptr %7, align 8, !tbaa !397
  %57 = getelementptr inbounds float, ptr %56, i64 2
  store float %55, ptr %57, align 4, !tbaa !309
  %58 = load ptr, ptr %7, align 8, !tbaa !397
  %59 = getelementptr inbounds float, ptr %58, i64 3
  store float 1.000000e+00, ptr %59, align 4, !tbaa !309
  %60 = getelementptr inbounds nuw %class.b3GpuNarrowPhase, ptr %10, i32 0, i32 1
  %61 = load ptr, ptr %60, align 8, !tbaa !19
  %62 = getelementptr inbounds nuw %struct.b3GpuNarrowPhaseInternalData, ptr %61, i32 0, i32 23
  %63 = load ptr, ptr %62, align 8, !tbaa !91
  %64 = load i32, ptr %9, align 4, !tbaa !85
  %65 = call noundef nonnull align 16 dereferenceable(80) ptr @_ZN20b3AlignedObjectArrayI15b3RigidBodyDataE2atEi(ptr noundef nonnull align 8 dereferenceable(25) %63, i32 noundef %64)
  %66 = getelementptr inbounds nuw %struct.b3RigidBodyData, ptr %65, i32 0, i32 1
  %67 = getelementptr inbounds nuw %class.b3QuadWord, ptr %66, i32 0, i32 0
  %68 = getelementptr inbounds nuw %struct.anon.33, ptr %67, i32 0, i32 0
  %69 = load float, ptr %68, align 16, !tbaa !308
  %70 = load ptr, ptr %8, align 8, !tbaa !397
  %71 = getelementptr inbounds float, ptr %70, i64 0
  store float %69, ptr %71, align 4, !tbaa !309
  %72 = getelementptr inbounds nuw %class.b3GpuNarrowPhase, ptr %10, i32 0, i32 1
  %73 = load ptr, ptr %72, align 8, !tbaa !19
  %74 = getelementptr inbounds nuw %struct.b3GpuNarrowPhaseInternalData, ptr %73, i32 0, i32 23
  %75 = load ptr, ptr %74, align 8, !tbaa !91
  %76 = load i32, ptr %9, align 4, !tbaa !85
  %77 = call noundef nonnull align 16 dereferenceable(80) ptr @_ZN20b3AlignedObjectArrayI15b3RigidBodyDataE2atEi(ptr noundef nonnull align 8 dereferenceable(25) %75, i32 noundef %76)
  %78 = getelementptr inbounds nuw %struct.b3RigidBodyData, ptr %77, i32 0, i32 1
  %79 = getelementptr inbounds nuw %class.b3QuadWord, ptr %78, i32 0, i32 0
  %80 = getelementptr inbounds nuw %struct.anon.33, ptr %79, i32 0, i32 1
  %81 = load float, ptr %80, align 4, !tbaa !308
  %82 = load ptr, ptr %8, align 8, !tbaa !397
  %83 = getelementptr inbounds float, ptr %82, i64 1
  store float %81, ptr %83, align 4, !tbaa !309
  %84 = getelementptr inbounds nuw %class.b3GpuNarrowPhase, ptr %10, i32 0, i32 1
  %85 = load ptr, ptr %84, align 8, !tbaa !19
  %86 = getelementptr inbounds nuw %struct.b3GpuNarrowPhaseInternalData, ptr %85, i32 0, i32 23
  %87 = load ptr, ptr %86, align 8, !tbaa !91
  %88 = load i32, ptr %9, align 4, !tbaa !85
  %89 = call noundef nonnull align 16 dereferenceable(80) ptr @_ZN20b3AlignedObjectArrayI15b3RigidBodyDataE2atEi(ptr noundef nonnull align 8 dereferenceable(25) %87, i32 noundef %88)
  %90 = getelementptr inbounds nuw %struct.b3RigidBodyData, ptr %89, i32 0, i32 1
  %91 = getelementptr inbounds nuw %class.b3QuadWord, ptr %90, i32 0, i32 0
  %92 = getelementptr inbounds nuw %struct.anon.33, ptr %91, i32 0, i32 2
  %93 = load float, ptr %92, align 8, !tbaa !308
  %94 = load ptr, ptr %8, align 8, !tbaa !397
  %95 = getelementptr inbounds float, ptr %94, i64 2
  store float %93, ptr %95, align 4, !tbaa !309
  %96 = getelementptr inbounds nuw %class.b3GpuNarrowPhase, ptr %10, i32 0, i32 1
  %97 = load ptr, ptr %96, align 8, !tbaa !19
  %98 = getelementptr inbounds nuw %struct.b3GpuNarrowPhaseInternalData, ptr %97, i32 0, i32 23
  %99 = load ptr, ptr %98, align 8, !tbaa !91
  %100 = load i32, ptr %9, align 4, !tbaa !85
  %101 = call noundef nonnull align 16 dereferenceable(80) ptr @_ZN20b3AlignedObjectArrayI15b3RigidBodyDataE2atEi(ptr noundef nonnull align 8 dereferenceable(25) %99, i32 noundef %100)
  %102 = getelementptr inbounds nuw %struct.b3RigidBodyData, ptr %101, i32 0, i32 1
  %103 = getelementptr inbounds nuw %class.b3QuadWord, ptr %102, i32 0, i32 0
  %104 = getelementptr inbounds nuw %struct.anon.33, ptr %103, i32 0, i32 3
  %105 = load float, ptr %104, align 4, !tbaa !308
  %106 = load ptr, ptr %8, align 8, !tbaa !397
  %107 = getelementptr inbounds float, ptr %106, i64 3
  store float %105, ptr %107, align 4, !tbaa !309
  store i1 true, ptr %5, align 1
  br label %111

108:                                              ; preds = %13, %4
  br label %109

109:                                              ; preds = %108
  call void (ptr, ...) @b3OutputWarningMessageVarArgsInternal(ptr noundef @.str.6, ptr noundef @.str.1, i32 noundef 1011)
  call void (ptr, ...) @b3OutputWarningMessageVarArgsInternal(ptr noundef @.str.8)
  br label %110

110:                                              ; preds = %109
  store i1 false, ptr %5, align 1
  br label %111

111:                                              ; preds = %110, %21
  %112 = load i1, ptr %5, align 1
  ret i1 %112
}