; Function Attrs: mustprogress uwtable
define dso_local noundef zeroext i1 @_ZNK16b3GpuNarrowPhase25getObjectTransformFromCpuEPfS0_i(ptr noundef nonnull readonly align 8 captures(none) dereferenceable(56) %0, ptr noundef writeonly captures(none) %1, ptr noundef writeonly captures(none) %2, i32 noundef %3) local_unnamed_addr #0 align 2 {
  %5 = icmp sgt i32 %3, -1
  br i1 %5, label %6, label %38

6:                                                ; preds = %4
  %7 = getelementptr inbounds nuw i8, ptr %0, i64 8
  %8 = load ptr, ptr %7, align 8, !tbaa !7
  %9 = getelementptr inbounds nuw i8, ptr %8, i64 336
  %10 = load ptr, ptr %9, align 8, !tbaa !102
  %11 = getelementptr inbounds nuw i8, ptr %10, i64 4
  %12 = load i32, ptr %11, align 4, !tbaa !100
  %13 = icmp slt i32 %3, %12
  br i1 %13, label %14, label %38

14:                                               ; preds = %6
  %15 = getelementptr inbounds nuw i8, ptr %10, i64 16
  %16 = load ptr, ptr %15, align 8, !tbaa !99
  %17 = zext nneg i32 %3 to i64
  %18 = getelementptr inbounds nuw %struct.b3RigidBodyData, ptr %16, i64 %17
  %19 = load float, ptr %18, align 16, !tbaa !124
  store float %19, ptr %1, align 4, !tbaa !152
  %20 = getelementptr inbounds nuw i8, ptr %18, i64 4
  %21 = load float, ptr %20, align 4, !tbaa !124
  %22 = getelementptr inbounds nuw i8, ptr %1, i64 4
  store float %21, ptr %22, align 4, !tbaa !152
  %23 = getelementptr inbounds nuw i8, ptr %18, i64 8
  %24 = load float, ptr %23, align 8, !tbaa !124
  %25 = getelementptr inbounds nuw i8, ptr %1, i64 8
  store float %24, ptr %25, align 4, !tbaa !152
  %26 = getelementptr inbounds nuw i8, ptr %1, i64 12
  store float 1.000000e+00, ptr %26, align 4, !tbaa !152
  %27 = getelementptr inbounds nuw i8, ptr %18, i64 16
  %28 = load float, ptr %27, align 16, !tbaa !124
  store float %28, ptr %2, align 4, !tbaa !152
  %29 = getelementptr inbounds nuw i8, ptr %18, i64 20
  %30 = load float, ptr %29, align 4, !tbaa !124
  %31 = getelementptr inbounds nuw i8, ptr %2, i64 4
  store float %30, ptr %31, align 4, !tbaa !152
  %32 = getelementptr inbounds nuw i8, ptr %18, i64 24
  %33 = load float, ptr %32, align 8, !tbaa !124
  %34 = getelementptr inbounds nuw i8, ptr %2, i64 8
  store float %33, ptr %34, align 4, !tbaa !152
  %35 = getelementptr inbounds nuw i8, ptr %18, i64 28
  %36 = load float, ptr %35, align 4, !tbaa !124
  %37 = getelementptr inbounds nuw i8, ptr %2, i64 12
  store float %36, ptr %37, align 4, !tbaa !152
  br label %39

38:                                               ; preds = %4, %6
  tail call void (ptr, ...) @b3OutputWarningMessageVarArgsInternal(ptr noundef nonnull @.str.6, ptr noundef nonnull @.str.1, i32 noundef 1011)
  tail call void (ptr, ...) @b3OutputWarningMessageVarArgsInternal(ptr noundef nonnull @.str.8)
  br label %39

39:                                               ; preds = %38, %14
  %.0 = phi i1 [ true, %14 ], [ false, %38 ]
  ret i1 %.0
}